target datalayout = "e-m:e-p270:32:32-p271:32:32-p272:64:64-i64:64-i128:128-f80:128-n8:16:32:64-S128"
target triple = "x86_64-pc-linux-gnu"

%struct.AVFormatContext = type { ptr, ptr, ptr, ptr, ptr, i32, i32, ptr, i32, ptr, i32, ptr, ptr, i64, i64, i64, i32, i32, i32, i64, i64, ptr, i32, i32, ptr, i32, i32, i32, i32, ptr, i64, i32, i32, %struct.AVIOInterruptCB, i32, i32, i32, i32, i64, i32, i32, i32, i32, i32, i32, i32, i32, i32, i32, i32, i32, i64, i32, i32, i32, i32, i32, ptr, ptr, ptr, ptr, i32, ptr, ptr, ptr, ptr, i32, ptr, ptr, i64, ptr, ptr, ptr, i64 }
%struct.AVIOInterruptCB = type { ptr, ptr }
%struct.RTPMuxContext = type { ptr, ptr, ptr, i32, i32, ptr, i32, i32, i32, i32, i32, i32, i64, i64, i32, i32, i32, i32, ptr, ptr, i32, i32, i32, i32, i32 }
%struct.AVStream = type { ptr, i32, i32, ptr, ptr, %struct.AVRational, i64, i64, i64, i32, i32, %struct.AVRational, ptr, %struct.AVRational, %struct.AVPacket, i32, %struct.AVRational, i32 }
%struct.AVPacket = type { ptr, i64, i64, ptr, i32, i32, i32, ptr, i32, i64, i64, ptr, ptr, %struct.AVRational }
%struct.AVRational = type { i32, i32 }

@.str.40 = private unnamed_addr constant [19 x i8] c"RTCP: %02x %lx %x\0A\00", align 1

; Function Attrs: nounwind uwtable
define internal void @rtcp_send_sr(ptr noundef %0, i64 noundef %1, i32 noundef %2) #0 {
  %4 = alloca ptr, align 8
  %5 = alloca i64, align 8
  %6 = alloca i32, align 4
  %7 = alloca ptr, align 8
  %8 = alloca i32, align 4
  %9 = alloca %struct.AVRational, align 4
  %10 = alloca i32, align 4
  store ptr %0, ptr %4, align 8, !tbaa !4
  store i64 %1, ptr %5, align 8, !tbaa !89
  store i32 %2, ptr %6, align 4, !tbaa !11
  call void @llvm.lifetime.start.p0(i64 8, ptr %7) #6
  %11 = load ptr, ptr %4, align 8, !tbaa !4
  %12 = getelementptr inbounds nuw %struct.AVFormatContext, ptr %11, i32 0, i32 3
  %13 = load ptr, ptr %12, align 8, !tbaa !13
  store ptr %13, ptr %7, align 8, !tbaa !28
  call void @llvm.lifetime.start.p0(i64 4, ptr %8) #6
  %14 = load ptr, ptr %4, align 8, !tbaa !4
  %15 = load ptr, ptr %7, align 8, !tbaa !28
  %16 = getelementptr inbounds nuw %struct.RTPMuxContext, ptr %15, i32 0, i32 3
  %17 = load i32, ptr %16, align 8, !tbaa !31
  %18 = load i64, ptr %5, align 8, !tbaa !89
  %19 = load ptr, ptr %7, align 8, !tbaa !28
  %20 = getelementptr inbounds nuw %struct.RTPMuxContext, ptr %19, i32 0, i32 7
  %21 = load i32, ptr %20, align 4, !tbaa !35
  call void (ptr, i32, ptr, ...) @av_log(ptr noundef %14, i32 noundef 56, ptr noundef @.str.40, i32 noundef %17, i64 noundef %18, i32 noundef %21)
  %22 = load i64, ptr %5, align 8, !tbaa !89
  %23 = load ptr, ptr %7, align 8, !tbaa !28
  %24 = getelementptr inbounds nuw %struct.RTPMuxContext, ptr %23, i32 0, i32 12
  store i64 %22, ptr %24, align 8, !tbaa !82
  %25 = load i64, ptr %5, align 8, !tbaa !89
  %26 = load ptr, ptr %7, align 8, !tbaa !28
  %27 = getelementptr inbounds nuw %struct.RTPMuxContext, ptr %26, i32 0, i32 13
  %28 = load i64, ptr %27, align 8, !tbaa !56
  %29 = sub nsw i64 %25, %28
  %30 = getelementptr inbounds nuw %struct.AVRational, ptr %9, i32 0, i32 0
  store i32 1, ptr %30, align 4, !tbaa !90
  %31 = getelementptr inbounds nuw %struct.AVRational, ptr %9, i32 0, i32 1
  store i32 1000000, ptr %31, align 4, !tbaa !91
  %32 = load ptr, ptr %4, align 8, !tbaa !4
  %33 = getelementptr inbounds nuw %struct.AVFormatContext, ptr %32, i32 0, i32 7
  %34 = load ptr, ptr %33, align 8, !tbaa !40
  %35 = getelementptr inbounds ptr, ptr %34, i64 0
  %36 = load ptr, ptr %35, align 8, !tbaa !41
  %37 = getelementptr inbounds nuw %struct.AVStream, ptr %36, i32 0, i32 5
  %38 = load i64, ptr %9, align 4
  %39 = load i64, ptr %37, align 8
  %40 = call i64 @av_rescale_q(i64 noundef %29, i64 %38, i64 %39) #7
  %41 = load ptr, ptr %7, align 8, !tbaa !28
  %42 = getelementptr inbounds nuw %struct.RTPMuxContext, ptr %41, i32 0, i32 8
  %43 = load i32, ptr %42, align 8, !tbaa !53
  %44 = zext i32 %43 to i64
  %45 = add nsw i64 %40, %44
  %46 = trunc i64 %45 to i32
  store i32 %46, ptr %8, align 4, !tbaa !11
  %47 = load ptr, ptr %4, align 8, !tbaa !4
  %48 = getelementptr inbounds nuw %struct.AVFormatContext, ptr %47, i32 0, i32 4
  %49 = load ptr, ptr %48, align 8, !tbaa !30
  call void @avio_w8(ptr noundef %49, i32 noundef 128)
  %50 = load ptr, ptr %4, align 8, !tbaa !4
  %51 = getelementptr inbounds nuw %struct.AVFormatContext, ptr %50, i32 0, i32 4
  %52 = load ptr, ptr %51, align 8, !tbaa !30
  call void @avio_w8(ptr noundef %52, i32 noundef 200)
  %53 = load ptr, ptr %4, align 8, !tbaa !4
  %54 = getelementptr inbounds nuw %struct.AVFormatContext, ptr %53, i32 0, i32 4
  %55 = load ptr, ptr %54, align 8, !tbaa !30
  call void @avio_wb16(ptr noundef %55, i32 noundef 6)
  %56 = load ptr, ptr %4, align 8, !tbaa !4
  %57 = getelementptr inbounds nuw %struct.AVFormatContext, ptr %56, i32 0, i32 4
  %58 = load ptr, ptr %57, align 8, !tbaa !30
  %59 = load ptr, ptr %7, align 8, !tbaa !28
  %60 = getelementptr inbounds nuw %struct.RTPMuxContext, ptr %59, i32 0, i32 4
  %61 = load i32, ptr %60, align 4, !tbaa !36
  call void @avio_wb32(ptr noundef %58, i32 noundef %61)
  %62 = load ptr, ptr %4, align 8, !tbaa !4
  %63 = getelementptr inbounds nuw %struct.AVFormatContext, ptr %62, i32 0, i32 4
  %64 = load ptr, ptr %63, align 8, !tbaa !30
  %65 = load i64, ptr %5, align 8, !tbaa !89
  %66 = sdiv i64 %65, 1000000
  %67 = trunc i64 %66 to i32
  call void @avio_wb32(ptr noundef %64, i32 noundef %67)
  %68 = load ptr, ptr %4, align 8, !tbaa !4
  %69 = getelementptr inbounds nuw %struct.AVFormatContext, ptr %68, i32 0, i32 4
  %70 = load ptr, ptr %69, align 8, !tbaa !30
  %71 = load i64, ptr %5, align 8, !tbaa !89
  %72 = srem i64 %71, 1000000
  %73 = shl i64 %72, 32
  %74 = sdiv i64 %73, 1000000
  %75 = trunc i64 %74 to i32
  call void @avio_wb32(ptr noundef %70, i32 noundef %75)
  %76 = load ptr, ptr %4, align 8, !tbaa !4
  %77 = getelementptr inbounds nuw %struct.AVFormatContext, ptr %76, i32 0, i32 4
  %78 = load ptr, ptr %77, align 8, !tbaa !30
  %79 = load i32, ptr %8, align 4, !tbaa !11
  call void @avio_wb32(ptr noundef %78, i32 noundef %79)
  %80 = load ptr, ptr %4, align 8, !tbaa !4
  %81 = getelementptr inbounds nuw %struct.AVFormatContext, ptr %80, i32 0, i32 4
  %82 = load ptr, ptr %81, align 8, !tbaa !30
  %83 = load ptr, ptr %7, align 8, !tbaa !28
  %84 = getelementptr inbounds nuw %struct.RTPMuxContext, ptr %83, i32 0, i32 14
  %85 = load i32, ptr %84, align 8, !tbaa !38
  call void @avio_wb32(ptr noundef %82, i32 noundef %85)
  %86 = load ptr, ptr %4, align 8, !tbaa !4
  %87 = getelementptr inbounds nuw %struct.AVFormatContext, ptr %86, i32 0, i32 4
  %88 = load ptr, ptr %87, align 8, !tbaa !30
  %89 = load ptr, ptr %7, align 8, !tbaa !28
  %90 = getelementptr inbounds nuw %struct.RTPMuxContext, ptr %89, i32 0, i32 15
  %91 = load i32, ptr %90, align 4, !tbaa !37
  call void @avio_wb32(ptr noundef %88, i32 noundef %91)
  %92 = load ptr, ptr %7, align 8, !tbaa !28
  %93 = getelementptr inbounds nuw %struct.RTPMuxContext, ptr %92, i32 0, i32 5
  %94 = load ptr, ptr %93, align 8, !tbaa !92
  %95 = icmp ne ptr %94, null
  br i1 %95, label %96, label %162

96:                                               ; preds = %3
  call void @llvm.lifetime.start.p0(i64 4, ptr %10) #6
  %97 = load ptr, ptr %7, align 8, !tbaa !28
  %98 = getelementptr inbounds nuw %struct.RTPMuxContext, ptr %97, i32 0, i32 5
  %99 = load ptr, ptr %98, align 8, !tbaa !92
  %100 = call i64 @strlen(ptr noundef %99) #8
  %101 = icmp ugt i64 %100, 255
  br i1 %101, label %102, label %103

102:                                              ; preds = %96
  br label %108

103:                                              ; preds = %96
  %104 = load ptr, ptr %7, align 8, !tbaa !28
  %105 = getelementptr inbounds nuw %struct.RTPMuxContext, ptr %104, i32 0, i32 5
  %106 = load ptr, ptr %105, align 8, !tbaa !92
  %107 = call i64 @strlen(ptr noundef %106) #8
  br label %108

108:                                              ; preds = %103, %102
  %109 = phi i64 [ 255, %102 ], [ %107, %103 ]
  %110 = trunc i64 %109 to i32
  store i32 %110, ptr %10, align 4, !tbaa !11
  %111 = load ptr, ptr %4, align 8, !tbaa !4
  %112 = getelementptr inbounds nuw %struct.AVFormatContext, ptr %111, i32 0, i32 4
  %113 = load ptr, ptr %112, align 8, !tbaa !30
  call void @avio_w8(ptr noundef %113, i32 noundef 129)
  %114 = load ptr, ptr %4, align 8, !tbaa !4
  %115 = getelementptr inbounds nuw %struct.AVFormatContext, ptr %114, i32 0, i32 4
  %116 = load ptr, ptr %115, align 8, !tbaa !30
  call void @avio_w8(ptr noundef %116, i32 noundef 202)
  %117 = load ptr, ptr %4, align 8, !tbaa !4
  %118 = getelementptr inbounds nuw %struct.AVFormatContext, ptr %117, i32 0, i32 4
  %119 = load ptr, ptr %118, align 8, !tbaa !30
  %120 = load i32, ptr %10, align 4, !tbaa !11
  %121 = add nsw i32 7, %120
  %122 = add nsw i32 %121, 3
  %123 = sdiv i32 %122, 4
  call void @avio_wb16(ptr noundef %119, i32 noundef %123)
  %124 = load ptr, ptr %4, align 8, !tbaa !4
  %125 = getelementptr inbounds nuw %struct.AVFormatContext, ptr %124, i32 0, i32 4
  %126 = load ptr, ptr %125, align 8, !tbaa !30
  %127 = load ptr, ptr %7, align 8, !tbaa !28
  %128 = getelementptr inbounds nuw %struct.RTPMuxContext, ptr %127, i32 0, i32 4
  %129 = load i32, ptr %128, align 4, !tbaa !36
  call void @avio_wb32(ptr noundef %126, i32 noundef %129)
  %130 = load ptr, ptr %4, align 8, !tbaa !4
  %131 = getelementptr inbounds nuw %struct.AVFormatContext, ptr %130, i32 0, i32 4
  %132 = load ptr, ptr %131, align 8, !tbaa !30
  call void @avio_w8(ptr noundef %132, i32 noundef 1)
  %133 = load ptr, ptr %4, align 8, !tbaa !4
  %134 = getelementptr inbounds nuw %struct.AVFormatContext, ptr %133, i32 0, i32 4
  %135 = load ptr, ptr %134, align 8, !tbaa !30
  %136 = load i32, ptr %10, align 4, !tbaa !11
  call void @avio_w8(ptr noundef %135, i32 noundef %136)
  %137 = load ptr, ptr %4, align 8, !tbaa !4
  %138 = getelementptr inbounds nuw %struct.AVFormatContext, ptr %137, i32 0, i32 4
  %139 = load ptr, ptr %138, align 8, !tbaa !30
  %140 = load ptr, ptr %7, align 8, !tbaa !28
  %141 = getelementptr inbounds nuw %struct.RTPMuxContext, ptr %140, i32 0, i32 5
  %142 = load ptr, ptr %141, align 8, !tbaa !92
  %143 = load i32, ptr %10, align 4, !tbaa !11
  call void @avio_write(ptr noundef %139, ptr noundef %142, i32 noundef %143)
  %144 = load ptr, ptr %4, align 8, !tbaa !4
  %145 = getelementptr inbounds nuw %struct.AVFormatContext, ptr %144, i32 0, i32 4
  %146 = load ptr, ptr %145, align 8, !tbaa !30
  call void @avio_w8(ptr noundef %146, i32 noundef 0)
  %147 = load i32, ptr %10, align 4, !tbaa !11
  %148 = add nsw i32 7, %147
  %149 = srem i32 %148, 4
  store i32 %149, ptr %10, align 4, !tbaa !11
  br label %150

150:                                              ; preds = %158, %108
  %151 = load i32, ptr %10, align 4, !tbaa !11
  %152 = srem i32 %151, 4
  %153 = icmp ne i32 %152, 0
  br i1 %153, label %154, label %161

154:                                              ; preds = %150
  %155 = load ptr, ptr %4, align 8, !tbaa !4
  %156 = getelementptr inbounds nuw %struct.AVFormatContext, ptr %155, i32 0, i32 4
  %157 = load ptr, ptr %156, align 8, !tbaa !30
  call void @avio_w8(ptr noundef %157, i32 noundef 0)
  br label %158

158:                                              ; preds = %154
  %159 = load i32, ptr %10, align 4, !tbaa !11
  %160 = add nsw i32 %159, 1
  store i32 %160, ptr %10, align 4, !tbaa !11
  br label %150, !llvm.loop !93

161:                                              ; preds = %150
  call void @llvm.lifetime.end.p0(i64 4, ptr %10) #6
  br label %162

162:                                              ; preds = %161, %3
  %163 = load i32, ptr %6, align 4, !tbaa !11
  %164 = icmp ne i32 %163, 0
  br i1 %164, label %165, label %181

165:                                              ; preds = %162
  %166 = load ptr, ptr %4, align 8, !tbaa !4
  %167 = getelementptr inbounds nuw %struct.AVFormatContext, ptr %166, i32 0, i32 4
  %168 = load ptr, ptr %167, align 8, !tbaa !30
  call void @avio_w8(ptr noundef %168, i32 noundef 129)
  %169 = load ptr, ptr %4, align 8, !tbaa !4
  %170 = getelementptr inbounds nuw %struct.AVFormatContext, ptr %169, i32 0, i32 4
  %171 = load ptr, ptr %170, align 8, !tbaa !30
  call void @avio_w8(ptr noundef %171, i32 noundef 203)
  %172 = load ptr, ptr %4, align 8, !tbaa !4
  %173 = getelementptr inbounds nuw %struct.AVFormatContext, ptr %172, i32 0, i32 4
  %174 = load ptr, ptr %173, align 8, !tbaa !30
  call void @avio_wb16(ptr noundef %174, i32 noundef 1)
  %175 = load ptr, ptr %4, align 8, !tbaa !4
  %176 = getelementptr inbounds nuw %struct.AVFormatContext, ptr %175, i32 0, i32 4
  %177 = load ptr, ptr %176, align 8, !tbaa !30
  %178 = load ptr, ptr %7, align 8, !tbaa !28
  %179 = getelementptr inbounds nuw %struct.RTPMuxContext, ptr %178, i32 0, i32 4
  %180 = load i32, ptr %179, align 4, !tbaa !36
  call void @avio_wb32(ptr noundef %177, i32 noundef %180)
  br label %181

181:                                              ; preds = %165, %162
  %182 = load ptr, ptr %4, align 8, !tbaa !4
  %183 = getelementptr inbounds nuw %struct.AVFormatContext, ptr %182, i32 0, i32 4
  %184 = load ptr, ptr %183, align 8, !tbaa !30
  call void @avio_flush(ptr noundef %184)
  call void @llvm.lifetime.end.p0(i64 4, ptr %8) #6
  call void @llvm.lifetime.end.p0(i64 8, ptr %7) #6
  ret void
}