; Function Attrs: nounwind uwtable
define internal fastcc void @rtcp_send_sr(ptr noundef %0, i64 noundef %1, i32 noundef range(i32 0, 2) %2) unnamed_addr #0 {
  %4 = getelementptr inbounds nuw i8, ptr %0, i64 24
  %5 = load ptr, ptr %4, align 8, !tbaa !4
  %6 = getelementptr inbounds nuw i8, ptr %5, i64 24
  %7 = load i32, ptr %6, align 8, !tbaa !25
  %8 = getelementptr inbounds nuw i8, ptr %5, i64 44
  %9 = load i32, ptr %8, align 4, !tbaa !30
  tail call void (ptr, i32, ptr, ...) @av_log(ptr noundef %0, i32 noundef 56, ptr noundef nonnull @.str.40, i32 noundef %7, i64 noundef %1, i32 noundef %9) #7
  %10 = getelementptr inbounds nuw i8, ptr %5, i64 64
  store i64 %1, ptr %10, align 8, !tbaa !75
  %11 = getelementptr inbounds nuw i8, ptr %5, i64 72
  %12 = load i64, ptr %11, align 8, !tbaa !51
  %13 = sub nsw i64 %1, %12
  %14 = getelementptr inbounds nuw i8, ptr %0, i64 48
  %15 = load ptr, ptr %14, align 8, !tbaa !35
  %16 = load ptr, ptr %15, align 8, !tbaa !36
  %17 = getelementptr inbounds nuw i8, ptr %16, i64 32
  %18 = load i64, ptr %17, align 8
  %19 = tail call i64 @av_rescale_q(i64 noundef %13, i64 4294967296000001, i64 %18) #8
  %20 = getelementptr inbounds nuw i8, ptr %5, i64 48
  %21 = load i32, ptr %20, align 8, !tbaa !48
  %22 = trunc i64 %19 to i32
  %23 = add i32 %21, %22
  %24 = getelementptr inbounds nuw i8, ptr %0, i64 32
  %25 = load ptr, ptr %24, align 8, !tbaa !24
  tail call void @avio_w8(ptr noundef %25, i32 noundef 128) #7
  %26 = load ptr, ptr %24, align 8, !tbaa !24
  tail call void @avio_w8(ptr noundef %26, i32 noundef 200) #7
  %27 = load ptr, ptr %24, align 8, !tbaa !24
  tail call void @avio_wb16(ptr noundef %27, i32 noundef 6) #7
  %28 = load ptr, ptr %24, align 8, !tbaa !24
  %29 = getelementptr inbounds nuw i8, ptr %5, i64 28
  %30 = load i32, ptr %29, align 4, !tbaa !31
  tail call void @avio_wb32(ptr noundef %28, i32 noundef %30) #7
  %31 = load ptr, ptr %24, align 8, !tbaa !24
  %32 = sdiv i64 %1, 1000000
  %33 = trunc i64 %32 to i32
  tail call void @avio_wb32(ptr noundef %31, i32 noundef %33) #7
  %34 = load ptr, ptr %24, align 8, !tbaa !24
  %35 = srem i64 %1, 1000000
  %36 = shl nsw i64 %35, 32
  %37 = sdiv i64 %36, 1000000
  %38 = trunc i64 %37 to i32
  tail call void @avio_wb32(ptr noundef %34, i32 noundef %38) #7
  %39 = load ptr, ptr %24, align 8, !tbaa !24
  tail call void @avio_wb32(ptr noundef %39, i32 noundef %23) #7
  %40 = load ptr, ptr %24, align 8, !tbaa !24
  %41 = getelementptr inbounds nuw i8, ptr %5, i64 80
  %42 = load i32, ptr %41, align 8, !tbaa !33
  tail call void @avio_wb32(ptr noundef %40, i32 noundef %42) #7
  %43 = load ptr, ptr %24, align 8, !tbaa !24
  %44 = getelementptr inbounds nuw i8, ptr %5, i64 84
  %45 = load i32, ptr %44, align 4, !tbaa !32
  tail call void @avio_wb32(ptr noundef %43, i32 noundef %45) #7
  %46 = getelementptr inbounds nuw i8, ptr %5, i64 32
  %47 = load ptr, ptr %46, align 8, !tbaa !91
  %.not = icmp eq ptr %47, null
  br i1 %.not, label %.loopexit, label %48

48:                                               ; preds = %3
  %49 = tail call i64 @strlen(ptr noundef nonnull dereferenceable(1) %47) #9
  %spec.select56 = tail call i64 @llvm.umin.i64(i64 %49, i64 255)
  %spec.select = trunc nuw nsw i64 %spec.select56 to i32
  %50 = load ptr, ptr %24, align 8, !tbaa !24
  tail call void @avio_w8(ptr noundef %50, i32 noundef 129) #7
  %51 = load ptr, ptr %24, align 8, !tbaa !24
  tail call void @avio_w8(ptr noundef %51, i32 noundef 202) #7
  %52 = load ptr, ptr %24, align 8, !tbaa !24
  %53 = add nuw nsw i32 %spec.select, 10
  %54 = lshr i32 %53, 2
  tail call void @avio_wb16(ptr noundef %52, i32 noundef %54) #7
  %55 = load ptr, ptr %24, align 8, !tbaa !24
  %56 = load i32, ptr %29, align 4, !tbaa !31
  tail call void @avio_wb32(ptr noundef %55, i32 noundef %56) #7
  %57 = load ptr, ptr %24, align 8, !tbaa !24
  tail call void @avio_w8(ptr noundef %57, i32 noundef 1) #7
  %58 = load ptr, ptr %24, align 8, !tbaa !24
  tail call void @avio_w8(ptr noundef %58, i32 noundef %spec.select) #7
  %59 = load ptr, ptr %24, align 8, !tbaa !24
  %60 = load ptr, ptr %46, align 8, !tbaa !91
  tail call void @avio_write(ptr noundef %59, ptr noundef %60, i32 noundef %spec.select) #7
  %61 = load ptr, ptr %24, align 8, !tbaa !24
  tail call void @avio_w8(ptr noundef %61, i32 noundef 0) #7
  %62 = and i32 %spec.select, 3
  %.not5457 = icmp eq i32 %62, 1
  br i1 %.not5457, label %.loopexit, label %.lr.ph.preheader

.lr.ph.preheader:                                 ; preds = %48
  %63 = add nuw nsw i32 %spec.select, 3
  br label %.lr.ph

.lr.ph:                                           ; preds = %.lr.ph.preheader, %.lr.ph
  %.058 = phi i32 [ %65, %.lr.ph ], [ %63, %.lr.ph.preheader ]
  %64 = load ptr, ptr %24, align 8, !tbaa !24
  tail call void @avio_w8(ptr noundef %64, i32 noundef 0) #7
  %65 = add i32 %.058, 1
  %66 = and i32 %65, 3
  %.not54 = icmp eq i32 %66, 0
  br i1 %.not54, label %.loopexit, label %.lr.ph, !llvm.loop !92

.loopexit:                                        ; preds = %.lr.ph, %48, %3
  %.not55 = icmp eq i32 %2, 0
  br i1 %.not55, label %73, label %67

67:                                               ; preds = %.loopexit
  %68 = load ptr, ptr %24, align 8, !tbaa !24
  tail call void @avio_w8(ptr noundef %68, i32 noundef 129) #7
  %69 = load ptr, ptr %24, align 8, !tbaa !24
  tail call void @avio_w8(ptr noundef %69, i32 noundef 203) #7
  %70 = load ptr, ptr %24, align 8, !tbaa !24
  tail call void @avio_wb16(ptr noundef %70, i32 noundef 1) #7
  %71 = load ptr, ptr %24, align 8, !tbaa !24
  %72 = load i32, ptr %29, align 4, !tbaa !31
  tail call void @avio_wb32(ptr noundef %71, i32 noundef %72) #7
  br label %73

73:                                               ; preds = %67, %.loopexit
  %74 = load ptr, ptr %24, align 8, !tbaa !24
  tail call void @avio_flush(ptr noundef %74) #7
  ret void
}